target datalayout = "e-m:e-p270:32:32-p271:32:32-p272:64:64-i64:64-i128:128-f80:128-n8:16:32:64-S128"
target triple = "x86_64-pc-linux-gnu"

%union.pthread_cond_t = type { %struct.__pthread_cond_s }
%struct.__pthread_cond_s = type { %union.__atomic_wide_counter, %union.__atomic_wide_counter, [2 x i32], [2 x i32], i32, i32, [2 x i32] }
%union.__atomic_wide_counter = type { i64 }
%union.pthread_mutex_t = type { %struct.__pthread_mutex_s }
%struct.__pthread_mutex_s = type { i32, i32, i32, i32, i32, i16, i16, %struct.__pthread_internal_list }
%struct.__pthread_internal_list = type { ptr, ptr }
%struct.stepd_step_rec_t = type { ptr, ptr, i32, %union.pthread_cond_t, %union.pthread_mutex_t, %struct.slurm_step_id_msg, i32, i32, i32, i32, i32, i32, ptr, ptr, i32, i32, ptr, i32, i32, i32, i32, i32, ptr, ptr, ptr, ptr, i32, i32, i64, i64, i16, i32, ptr, ptr, ptr, i32, ptr, i32, ptr, i32, ptr, i16, i32, i32, i32, ptr, i32, ptr, ptr, ptr, ptr, i32, i32, ptr, ptr, i8, i8, i8, i64, i32, ptr, ptr, ptr, ptr, ptr, ptr, ptr, ptr, ptr, ptr, i32, i32, ptr, i8, %union.pthread_cond_t, %union.pthread_mutex_t, i64, ptr, i32, i32, i32, ptr, i64, ptr, ptr, i8, ptr, i16, ptr, ptr, ptr, ptr, ptr, ptr, i64, ptr, i64, ptr, i16, i8, i16, i32, ptr, i16, ptr, ptr, i16, ptr, ptr, ptr, i8 }
%struct.slurm_step_id_msg = type { i64, i32, i32, i32 }
%struct.stepd_step_task_info_t = type { %union.pthread_mutex_t, i32, ptr, i32, i32, i32, ptr, ptr, ptr, i32, i32, i32, i32, i32, i32, ptr, ptr, ptr, i8, i8, i8, i8, i32, i32, ptr }

@.str.154 = private unnamed_addr constant [14 x i8] c"login_tty: %m\00", align 1
@.str.155 = private unnamed_addr constant [15 x i8] c"login_tty good\00", align 1

; Function Attrs: nounwind uwtable
define internal void @prepare_stdio(ptr noundef %0, ptr noundef %1) #0 {
  %3 = alloca ptr, align 8
  %4 = alloca ptr, align 8
  store ptr %0, ptr %3, align 8
  store ptr %1, ptr %4, align 8
  %5 = load ptr, ptr %3, align 8
  %6 = getelementptr inbounds nuw %struct.stepd_step_rec_t, ptr %5, i32 0, i32 80
  %7 = load i32, ptr %6, align 8
  %8 = zext i32 %7 to i64
  %9 = and i64 %8, 4
  %10 = icmp ne i64 %9, 0
  br i1 %10, label %11, label %34

11:                                               ; preds = %2
  %12 = load ptr, ptr %4, align 8
  %13 = getelementptr inbounds nuw %struct.stepd_step_task_info_t, ptr %12, i32 0, i32 4
  %14 = load i32, ptr %13, align 4
  %15 = icmp eq i32 %14, 0
  br i1 %15, label %16, label %34

16:                                               ; preds = %11
  %17 = load ptr, ptr %4, align 8
  %18 = getelementptr inbounds nuw %struct.stepd_step_task_info_t, ptr %17, i32 0, i32 9
  %19 = load i32, ptr %18, align 8
  %20 = call i32 @login_tty(i32 noundef %19) #12
  %21 = icmp ne i32 %20, 0
  br i1 %21, label %22, label %24

22:                                               ; preds = %16
  %23 = call i32 (ptr, ...) @error(ptr noundef @.str.154)
  br label %33

24:                                               ; preds = %16
  br label %25

25:                                               ; preds = %24
  br label %26

26:                                               ; preds = %25
  %27 = call i32 @get_log_level()
  %28 = icmp sge i32 %27, 7
  br i1 %28, label %29, label %30

29:                                               ; preds = %26
  call void (i32, ptr, ...) @log_var(i32 noundef 7, ptr noundef @.str.155)
  br label %30

30:                                               ; preds = %29, %26
  br label %31

31:                                               ; preds = %30
  br label %32

32:                                               ; preds = %31
  br label %33

33:                                               ; preds = %32, %22
  br label %37

34:                                               ; preds = %11, %2
  %35 = load ptr, ptr %4, align 8
  %36 = call i32 @io_dup_stdio(ptr noundef %35)
  br label %37

37:                                               ; preds = %34, %33
  ret void
}