; Function Attrs: nounwind uwtable
define internal fastcc void @prepare_stdio(i32 %.680.val, ptr noundef %0) unnamed_addr #0 {
  %2 = and i32 %.680.val, 4
  %.not = icmp eq i32 %2, 0
  br i1 %.not, label %17, label %3

3:                                                ; preds = %1
  %4 = getelementptr inbounds nuw i8, ptr %0, i64 60
  %5 = load i32, ptr %4, align 4
  %6 = icmp eq i32 %5, 0
  br i1 %6, label %7, label %17

7:                                                ; preds = %3
  %8 = getelementptr inbounds nuw i8, ptr %0, i64 96
  %9 = load i32, ptr %8, align 8
  %10 = tail call i32 @login_tty(i32 noundef %9) #17
  %.not4 = icmp eq i32 %10, 0
  br i1 %.not4, label %13, label %11

11:                                               ; preds = %7
  %12 = tail call i32 (ptr, ...) @error(ptr noundef nonnull @.str.154) #17
  br label %19

13:                                               ; preds = %7
  %14 = tail call i32 @get_log_level() #17
  %15 = icmp sgt i32 %14, 6
  br i1 %15, label %16, label %19

16:                                               ; preds = %13
  tail call void (i32, ptr, ...) @log_var(i32 noundef 7, ptr noundef nonnull @.str.155) #17
  br label %19

17:                                               ; preds = %3, %1
  %18 = tail call i32 @io_dup_stdio(ptr noundef %0) #17
  br label %19

19:                                               ; preds = %11, %16, %13, %17
  ret void
}